target datalayout = "e-m:e-p270:32:32-p271:32:32-p272:64:64-i64:64-i128:128-f80:128-n8:16:32:64-S128"
target triple = "x86_64-pc-linux-gnu"

%struct.Gia_Obj_t_ = type <{ i64, i32 }>
%struct.Vec_Int_t_ = type { i32, i32, ptr }
%struct.Gia_Man_t_ = type { ptr, ptr, i32, i32, i32, i32, ptr, ptr, i32, i32, i32, ptr, ptr, %struct.Vec_Int_t_, %struct.Vec_Int_t_, i32, i32, i32, %struct.Vec_Int_t_, ptr, ptr, ptr, i32, i32, i32, i32, ptr, ptr, ptr, ptr, ptr, i32, i32, ptr, i32, ptr, ptr, ptr, ptr, ptr, ptr, ptr, ptr, ptr, ptr, ptr, ptr, ptr, ptr, ptr, ptr, ptr, ptr, %struct.Vec_Int_t_, %struct.Vec_Int_t_, ptr, ptr, ptr, ptr, ptr, ptr, ptr, ptr, ptr, ptr, ptr, ptr, ptr, ptr, ptr, ptr, ptr, ptr, ptr, ptr, ptr, i32, float, float, ptr, ptr, i32, ptr, ptr, ptr, ptr, ptr, ptr, ptr, ptr, ptr, ptr, ptr, ptr, ptr, ptr, ptr, i64, i64, ptr, ptr, i32, i32, i32, i32, i32, i32, i32, i32, i32, i32, i32, i32, ptr, ptr, ptr, ptr, ptr, ptr, ptr, ptr, i32, i32, i32, ptr, i32, i32, ptr, ptr, ptr, ptr, ptr, ptr, i32, i32, ptr, %struct.Vec_Int_t_, %struct.Vec_Int_t_, %struct.Vec_Int_t_, ptr, ptr, ptr }

; Function Attrs: nounwind uwtable
define internal ptr @Gia_NotCond(ptr noundef %0, i32 noundef %1) #0 {
  %3 = alloca ptr, align 8
  %4 = alloca i32, align 4
  store ptr %0, ptr %3, align 8
  store i32 %1, ptr %4, align 4
  %5 = load ptr, ptr %3, align 8
  %6 = ptrtoint ptr %5 to i64
  %7 = load i32, ptr %4, align 4
  %8 = sext i32 %7 to i64
  %9 = xor i64 %6, %8
  %10 = inttoptr i64 %9 to ptr
  ret ptr %10
}

; Function Attrs: nounwind uwtable
define internal i32 @Abc_LitIsCompl(i32 noundef %0) #0 {
  %2 = alloca i32, align 4
  store i32 %0, ptr %2, align 4
  %3 = load i32, ptr %2, align 4
  %4 = and i32 %3, 1
  ret i32 %4
}

; Function Attrs: nounwind uwtable
define internal i32 @Abc_Lit2Var(i32 noundef %0) #0 {
  %2 = alloca i32, align 4
  store i32 %0, ptr %2, align 4
  %3 = load i32, ptr %2, align 4
  %4 = ashr i32 %3, 1
  ret i32 %4
}

; Function Attrs: nounwind uwtable
define internal ptr @Gia_ManObj(ptr noundef %0, i32 noundef %1) #0 {
  %3 = alloca ptr, align 8
  %4 = alloca i32, align 4
  store ptr %0, ptr %3, align 8
  store i32 %1, ptr %4, align 4
  %5 = load ptr, ptr %3, align 8
  %6 = getelementptr inbounds %struct.Gia_Man_t_, ptr %5, i32 0, i32 6
  %7 = load ptr, ptr %6, align 8
  %8 = load i32, ptr %4, align 4
  %9 = sext i32 %8 to i64
  %10 = getelementptr inbounds %struct.Gia_Obj_t_, ptr %7, i64 %9
  ret ptr %10
}

; Function Attrs: nounwind uwtable
define internal i32 @Vec_IntEntry(ptr noundef %0, i32 noundef %1) #0 {
  %3 = alloca ptr, align 8
  %4 = alloca i32, align 4
  store ptr %0, ptr %3, align 8
  store i32 %1, ptr %4, align 4
  %5 = load ptr, ptr %3, align 8
  %6 = getelementptr inbounds %struct.Vec_Int_t_, ptr %5, i32 0, i32 2
  %7 = load ptr, ptr %6, align 8
  %8 = load i32, ptr %4, align 4
  %9 = sext i32 %8 to i64
  %10 = getelementptr inbounds i32, ptr %7, i64 %9
  %11 = load i32, ptr %10, align 4
  ret i32 %11
}

; Function Attrs: nounwind uwtable
define internal i32 @Gia_ManRegNum(ptr noundef %0) #0 {
  %2 = alloca ptr, align 8
  store ptr %0, ptr %2, align 8
  %3 = load ptr, ptr %2, align 8
  %4 = getelementptr inbounds %struct.Gia_Man_t_, ptr %3, i32 0, i32 2
  %5 = load i32, ptr %4, align 8
  ret i32 %5
}

; Function Attrs: nounwind uwtable
define internal void @Gia_ObjSetCioId(ptr noundef %0, i32 noundef %1) #0 {
  %3 = alloca ptr, align 8
  %4 = alloca i32, align 4
  store ptr %0, ptr %3, align 8
  store i32 %1, ptr %4, align 4
  %5 = load i32, ptr %4, align 4
  %6 = load ptr, ptr %3, align 8
  %7 = zext i32 %5 to i64
  %8 = load i64, ptr %6, align 4
  %9 = and i64 %7, 536870911
  %10 = shl i64 %9, 32
  %11 = and i64 %8, -2305843004918726657
  %12 = or i64 %11, %10
  store i64 %12, ptr %6, align 4
  ret void
}

; Function Attrs: nounwind uwtable
define internal void @Vec_IntWriteEntry(ptr noundef %0, i32 noundef %1, i32 noundef %2) #0 {
  %4 = alloca ptr, align 8
  %5 = alloca i32, align 4
  %6 = alloca i32, align 4
  store ptr %0, ptr %4, align 8
  store i32 %1, ptr %5, align 4
  store i32 %2, ptr %6, align 4
  %7 = load i32, ptr %6, align 4
  %8 = load ptr, ptr %4, align 8
  %9 = getelementptr inbounds %struct.Vec_Int_t_, ptr %8, i32 0, i32 2
  %10 = load ptr, ptr %9, align 8
  %11 = load i32, ptr %5, align 4
  %12 = sext i32 %11 to i64
  %13 = getelementptr inbounds i32, ptr %10, i64 %12
  store i32 %7, ptr %13, align 4
  ret void
}

; Function Attrs: nounwind uwtable
define internal i32 @Gia_ObjId(ptr noundef %0, ptr noundef %1) #0 {
  %3 = alloca ptr, align 8
  %4 = alloca ptr, align 8
  store ptr %0, ptr %3, align 8
  store ptr %1, ptr %4, align 8
  %5 = load ptr, ptr %4, align 8
  %6 = load ptr, ptr %3, align 8
  %7 = getelementptr inbounds %struct.Gia_Man_t_, ptr %6, i32 0, i32 6
  %8 = load ptr, ptr %7, align 8
  %9 = ptrtoint ptr %5 to i64
  %10 = ptrtoint ptr %8 to i64
  %11 = sub i64 %9, %10
  %12 = sdiv exact i64 %11, 12
  %13 = trunc i64 %12 to i32
  ret i32 %13
}

; Function Attrs: nounwind uwtable
define internal i32 @Gia_ObjCioId(ptr noundef %0) #0 {
  %2 = alloca ptr, align 8
  store ptr %0, ptr %2, align 8
  %3 = load ptr, ptr %2, align 8
  %4 = load i64, ptr %3, align 4
  %5 = lshr i64 %4, 32
  %6 = and i64 %5, 536870911
  %7 = trunc i64 %6 to i32
  ret i32 %7
}

; Function Attrs: nounwind uwtable
define internal ptr @Gia_ObjFromLit(ptr noundef %0, i32 noundef %1) #0 {
  %3 = alloca ptr, align 8
  %4 = alloca i32, align 4
  store ptr %0, ptr %3, align 8
  store i32 %1, ptr %4, align 4
  %5 = load ptr, ptr %3, align 8
  %6 = load i32, ptr %4, align 4
  %7 = call i32 @Abc_Lit2Var(i32 noundef %6)
  %8 = call ptr @Gia_ManObj(ptr noundef %5, i32 noundef %7)
  %9 = load i32, ptr %4, align 4
  %10 = call i32 @Abc_LitIsCompl(i32 noundef %9)
  %11 = call ptr @Gia_NotCond(ptr noundef %8, i32 noundef %10)
  ret ptr %11
}

; Function Attrs: nounwind uwtable
define internal ptr @Gia_ManCi(ptr noundef %0, i32 noundef %1) #0 {
  %3 = alloca ptr, align 8
  %4 = alloca i32, align 4
  store ptr %0, ptr %3, align 8
  store i32 %1, ptr %4, align 4
  %5 = load ptr, ptr %3, align 8
  %6 = load ptr, ptr %3, align 8
  %7 = getelementptr inbounds %struct.Gia_Man_t_, ptr %6, i32 0, i32 11
  %8 = load ptr, ptr %7, align 8
  %9 = load i32, ptr %4, align 4
  %10 = call i32 @Vec_IntEntry(ptr noundef %8, i32 noundef %9)
  %11 = call ptr @Gia_ManObj(ptr noundef %5, i32 noundef %10)
  ret ptr %11
}

; Function Attrs: nounwind uwtable
define internal ptr @Gia_ManCo(ptr noundef %0, i32 noundef %1) #0 {
  %3 = alloca ptr, align 8
  %4 = alloca i32, align 4
  store ptr %0, ptr %3, align 8
  store i32 %1, ptr %4, align 4
  %5 = load ptr, ptr %3, align 8
  %6 = load ptr, ptr %3, align 8
  %7 = getelementptr inbounds %struct.Gia_Man_t_, ptr %6, i32 0, i32 12
  %8 = load ptr, ptr %7, align 8
  %9 = load i32, ptr %4, align 4
  %10 = call i32 @Vec_IntEntry(ptr noundef %8, i32 noundef %9)
  %11 = call ptr @Gia_ManObj(ptr noundef %5, i32 noundef %10)
  ret ptr %11
}

; Function Attrs: nounwind uwtable
define internal i32 @Vec_IntSize(ptr noundef %0) #0 {
  %2 = alloca ptr, align 8
  store ptr %0, ptr %2, align 8
  %3 = load ptr, ptr %2, align 8
  %4 = getelementptr inbounds %struct.Vec_Int_t_, ptr %3, i32 0, i32 1
  %5 = load i32, ptr %4, align 4
  ret i32 %5
}

; Function Attrs: nounwind uwtable
define internal ptr @Gia_ManConst0(ptr noundef %0) #0 {
  %2 = alloca ptr, align 8
  store ptr %0, ptr %2, align 8
  %3 = load ptr, ptr %2, align 8
  %4 = getelementptr inbounds %struct.Gia_Man_t_, ptr %3, i32 0, i32 6
  %5 = load ptr, ptr %4, align 8
  ret ptr %5
}

; Function Attrs: nounwind uwtable
define internal ptr @Abc_UtilStrsav(ptr noundef %0) #0 {
  %2 = alloca ptr, align 8
  store ptr %0, ptr %2, align 8
  %3 = load ptr, ptr %2, align 8
  %4 = icmp ne ptr %3, null
  br i1 %4, label %5, label %13

5:                                                ; preds = %1
  %6 = load ptr, ptr %2, align 8
  %7 = call i64 @strlen(ptr noundef %6) #14
  %8 = add i64 %7, 1
  %9 = mul i64 1, %8
  %10 = call noalias ptr @malloc(i64 noundef %9) #12
  %11 = load ptr, ptr %2, align 8
  %12 = call ptr @strcpy(ptr noundef %10, ptr noundef %11) #13
  br label %14

13:                                               ; preds = %1
  br label %14

14:                                               ; preds = %13, %5
  %15 = phi ptr [ %12, %5 ], [ null, %13 ]
  ret ptr %15
}

; Function Attrs: nounwind uwtable
define internal i32 @Gia_ManObjNum(ptr noundef %0) #0 {
  %2 = alloca ptr, align 8
  store ptr %0, ptr %2, align 8
  %3 = load ptr, ptr %2, align 8
  %4 = getelementptr inbounds %struct.Gia_Man_t_, ptr %3, i32 0, i32 4
  %5 = load i32, ptr %4, align 8
  ret i32 %5
}

; Function Attrs: nounwind uwtable
define ptr @Gia_ManDupDfs2(ptr noundef %0) #0 {
  %2 = alloca ptr, align 8
  %3 = alloca ptr, align 8
  %4 = alloca ptr, align 8
  %5 = alloca ptr, align 8
  %6 = alloca i32, align 4
  store ptr %0, ptr %2, align 8
  %7 = load ptr, ptr %2, align 8
  call void @Gia_ManFillValue(ptr noundef %7)
  %8 = load ptr, ptr %2, align 8
  %9 = call i32 @Gia_ManObjNum(ptr noundef %8)
  %10 = call ptr @Gia_ManStart(i32 noundef %9)
  store ptr %10, ptr %3, align 8
  %11 = load ptr, ptr %2, align 8
  %12 = getelementptr inbounds %struct.Gia_Man_t_, ptr %11, i32 0, i32 0
  %13 = load ptr, ptr %12, align 8
  %14 = call ptr @Abc_UtilStrsav(ptr noundef %13)
  %15 = load ptr, ptr %3, align 8
  %16 = getelementptr inbounds %struct.Gia_Man_t_, ptr %15, i32 0, i32 0
  store ptr %14, ptr %16, align 8
  %17 = load ptr, ptr %2, align 8
  %18 = getelementptr inbounds %struct.Gia_Man_t_, ptr %17, i32 0, i32 1
  %19 = load ptr, ptr %18, align 8
  %20 = call ptr @Abc_UtilStrsav(ptr noundef %19)
  %21 = load ptr, ptr %3, align 8
  %22 = getelementptr inbounds %struct.Gia_Man_t_, ptr %21, i32 0, i32 1
  store ptr %20, ptr %22, align 8
  %23 = load ptr, ptr %2, align 8
  %24 = call ptr @Gia_ManConst0(ptr noundef %23)
  %25 = getelementptr inbounds %struct.Gia_Obj_t_, ptr %24, i32 0, i32 1
  store i32 0, ptr %25, align 4
  store i32 0, ptr %6, align 4
  br label %26

26:                                               ; preds = %45, %1
  %27 = load i32, ptr %6, align 4
  %28 = load ptr, ptr %2, align 8
  %29 = getelementptr inbounds %struct.Gia_Man_t_, ptr %28, i32 0, i32 12
  %30 = load ptr, ptr %29, align 8
  %31 = call i32 @Vec_IntSize(ptr noundef %30)
  %32 = icmp slt i32 %27, %31
  br i1 %32, label %33, label %38

33:                                               ; preds = %26
  %34 = load ptr, ptr %2, align 8
  %35 = load i32, ptr %6, align 4
  %36 = call ptr @Gia_ManCo(ptr noundef %34, i32 noundef %35)
  store ptr %36, ptr %4, align 8
  %37 = icmp ne ptr %36, null
  br label %38

38:                                               ; preds = %33, %26
  %39 = phi i1 [ false, %26 ], [ %37, %33 ]
  br i1 %39, label %40, label %48

40:                                               ; preds = %38
  %41 = load ptr, ptr %3, align 8
  %42 = load ptr, ptr %2, align 8
  %43 = load ptr, ptr %4, align 8
  %44 = call i32 @Gia_ManDupDfs2_rec(ptr noundef %41, ptr noundef %42, ptr noundef %43)
  br label %45

45:                                               ; preds = %40
  %46 = load i32, ptr %6, align 4
  %47 = add nsw i32 %46, 1
  store i32 %47, ptr %6, align 4
  br label %26, !llvm.loop !144

48:                                               ; preds = %38
  store i32 0, ptr %6, align 4
  br label %49

49:                                               ; preds = %75, %48
  %50 = load i32, ptr %6, align 4
  %51 = load ptr, ptr %2, align 8
  %52 = getelementptr inbounds %struct.Gia_Man_t_, ptr %51, i32 0, i32 11
  %53 = load ptr, ptr %52, align 8
  %54 = call i32 @Vec_IntSize(ptr noundef %53)
  %55 = icmp slt i32 %50, %54
  br i1 %55, label %56, label %61

56:                                               ; preds = %49
  %57 = load ptr, ptr %2, align 8
  %58 = load i32, ptr %6, align 4
  %59 = call ptr @Gia_ManCi(ptr noundef %57, i32 noundef %58)
  store ptr %59, ptr %4, align 8
  %60 = icmp ne ptr %59, null
  br label %61

61:                                               ; preds = %56, %49
  %62 = phi i1 [ false, %49 ], [ %60, %56 ]
  br i1 %62, label %63, label %78

63:                                               ; preds = %61
  %64 = load ptr, ptr %4, align 8
  %65 = getelementptr inbounds %struct.Gia_Obj_t_, ptr %64, i32 0, i32 1
  %66 = load i32, ptr %65, align 4
  %67 = xor i32 %66, -1
  %68 = icmp eq i32 %67, 0
  br i1 %68, label %69, label %74

69:                                               ; preds = %63
  %70 = load ptr, ptr %3, align 8
  %71 = call i32 @Gia_ManAppendCi(ptr noundef %70)
  %72 = load ptr, ptr %4, align 8
  %73 = getelementptr inbounds %struct.Gia_Obj_t_, ptr %72, i32 0, i32 1
  store i32 %71, ptr %73, align 4
  br label %74

74:                                               ; preds = %69, %63
  br label %75

75:                                               ; preds = %74
  %76 = load i32, ptr %6, align 4
  %77 = add nsw i32 %76, 1
  store i32 %77, ptr %6, align 4
  br label %49, !llvm.loop !145

78:                                               ; preds = %61
  store i32 0, ptr %6, align 4
  br label %79

79:                                               ; preds = %110, %78
  %80 = load i32, ptr %6, align 4
  %81 = load ptr, ptr %2, align 8
  %82 = getelementptr inbounds %struct.Gia_Man_t_, ptr %81, i32 0, i32 11
  %83 = load ptr, ptr %82, align 8
  %84 = call i32 @Vec_IntSize(ptr noundef %83)
  %85 = icmp slt i32 %80, %84
  br i1 %85, label %86, label %91

86:                                               ; preds = %79
  %87 = load ptr, ptr %2, align 8
  %88 = load i32, ptr %6, align 4
  %89 = call ptr @Gia_ManCi(ptr noundef %87, i32 noundef %88)
  store ptr %89, ptr %4, align 8
  %90 = icmp ne ptr %89, null
  br label %91

91:                                               ; preds = %86, %79
  %92 = phi i1 [ false, %79 ], [ %90, %86 ]
  br i1 %92, label %93, label %113

93:                                               ; preds = %91
  %94 = load ptr, ptr %3, align 8
  %95 = load ptr, ptr %4, align 8
  %96 = getelementptr inbounds %struct.Gia_Obj_t_, ptr %95, i32 0, i32 1
  %97 = load i32, ptr %96, align 4
  %98 = call ptr @Gia_ObjFromLit(ptr noundef %94, i32 noundef %97)
  store ptr %98, ptr %5, align 8
  %99 = load ptr, ptr %3, align 8
  %100 = getelementptr inbounds %struct.Gia_Man_t_, ptr %99, i32 0, i32 11
  %101 = load ptr, ptr %100, align 8
  %102 = load ptr, ptr %4, align 8
  %103 = call i32 @Gia_ObjCioId(ptr noundef %102)
  %104 = load ptr, ptr %3, align 8
  %105 = load ptr, ptr %5, align 8
  %106 = call i32 @Gia_ObjId(ptr noundef %104, ptr noundef %105)
  call void @Vec_IntWriteEntry(ptr noundef %101, i32 noundef %103, i32 noundef %106)
  %107 = load ptr, ptr %5, align 8
  %108 = load ptr, ptr %4, align 8
  %109 = call i32 @Gia_ObjCioId(ptr noundef %108)
  call void @Gia_ObjSetCioId(ptr noundef %107, i32 noundef %109)
  br label %110

110:                                              ; preds = %93
  %111 = load i32, ptr %6, align 4
  %112 = add nsw i32 %111, 1
  store i32 %112, ptr %6, align 4
  br label %79, !llvm.loop !146

113:                                              ; preds = %91
  %114 = load ptr, ptr %3, align 8
  %115 = load ptr, ptr %2, align 8
  %116 = call i32 @Gia_ManRegNum(ptr noundef %115)
  call void @Gia_ManSetRegNum(ptr noundef %114, i32 noundef %116)
  %117 = load ptr, ptr %3, align 8
  ret ptr %117
}