; Function Attrs: nounwind uwtable
define ptr @Gia_ManDupDfs2(ptr noundef %0) local_unnamed_addr #1 {
  tail call void @Gia_ManFillValue(ptr noundef %0) #29
  %2 = getelementptr i8, ptr %0, i64 24
  %.val50 = load i32, ptr %2, align 8
  %3 = tail call ptr @Gia_ManStart(i32 noundef %.val50) #29
  %4 = load ptr, ptr %0, align 8
  %.not.i = icmp eq ptr %4, null
  br i1 %.not.i, label %Abc_UtilStrsav.exit, label %5

5:                                                ; preds = %1
  %6 = tail call i64 @strlen(ptr noundef nonnull readonly dereferenceable(1) %4) #30
  %7 = add i64 %6, 1
  %8 = tail call noalias ptr @malloc(i64 noundef %7) #27
  %9 = tail call ptr @strcpy(ptr noundef nonnull dereferenceable(1) %8, ptr noundef nonnull readonly dereferenceable(1) %4) #29
  br label %Abc_UtilStrsav.exit

Abc_UtilStrsav.exit:                              ; preds = %1, %5
  %10 = phi ptr [ %8, %5 ], [ null, %1 ]
  store ptr %10, ptr %3, align 8
  %11 = getelementptr inbounds nuw i8, ptr %0, i64 8
  %12 = load ptr, ptr %11, align 8
  %.not.i63 = icmp eq ptr %12, null
  br i1 %.not.i63, label %Abc_UtilStrsav.exit64, label %13

13:                                               ; preds = %Abc_UtilStrsav.exit
  %14 = tail call i64 @strlen(ptr noundef nonnull readonly dereferenceable(1) %12) #30
  %15 = add i64 %14, 1
  %16 = tail call noalias ptr @malloc(i64 noundef %15) #27
  %17 = tail call ptr @strcpy(ptr noundef nonnull dereferenceable(1) %16, ptr noundef nonnull readonly dereferenceable(1) %12) #29
  br label %Abc_UtilStrsav.exit64

Abc_UtilStrsav.exit64:                            ; preds = %Abc_UtilStrsav.exit, %13
  %18 = phi ptr [ %16, %13 ], [ null, %Abc_UtilStrsav.exit ]
  %19 = getelementptr inbounds nuw i8, ptr %3, i64 8
  store ptr %18, ptr %19, align 8
  %20 = getelementptr i8, ptr %0, i64 32
  %.val59 = load ptr, ptr %20, align 8
  %21 = getelementptr inbounds nuw i8, ptr %.val59, i64 8
  store i32 0, ptr %21, align 4
  %22 = getelementptr inbounds nuw i8, ptr %0, i64 72
  %23 = load ptr, ptr %22, align 8
  %24 = getelementptr i8, ptr %23, i64 4
  %.val4865 = load i32, ptr %24, align 4
  %25 = icmp sgt i32 %.val4865, 0
  br i1 %25, label %.lr.ph, label %.critedge

.lr.ph:                                           ; preds = %Abc_UtilStrsav.exit64, %27
  %indvars.iv = phi i64 [ %indvars.iv.next, %27 ], [ 0, %Abc_UtilStrsav.exit64 ]
  %26 = phi ptr [ %34, %27 ], [ %23, %Abc_UtilStrsav.exit64 ]
  %.val57 = load ptr, ptr %20, align 8
  %.not = icmp eq ptr %.val57, null
  br i1 %.not, label %.critedge, label %27

27:                                               ; preds = %.lr.ph
  %28 = getelementptr i8, ptr %26, i64 8
  %.val58.val = load ptr, ptr %28, align 8
  %29 = getelementptr inbounds nuw i32, ptr %.val58.val, i64 %indvars.iv
  %30 = load i32, ptr %29, align 4
  %31 = sext i32 %30 to i64
  %32 = getelementptr inbounds %struct.Gia_Obj_t_, ptr %.val57, i64 %31
  %33 = tail call i32 @Gia_ManDupDfs2_rec(ptr noundef nonnull %3, ptr noundef nonnull %0, ptr noundef nonnull %32)
  %indvars.iv.next = add nuw nsw i64 %indvars.iv, 1
  %34 = load ptr, ptr %22, align 8
  %35 = getelementptr i8, ptr %34, i64 4
  %.val48 = load i32, ptr %35, align 4
  %36 = sext i32 %.val48 to i64
  %37 = icmp slt i64 %indvars.iv.next, %36
  br i1 %37, label %.lr.ph, label %.critedge, !llvm.loop !144

.critedge:                                        ; preds = %.lr.ph, %27, %Abc_UtilStrsav.exit64
  %38 = getelementptr inbounds nuw i8, ptr %0, i64 64
  %39 = load ptr, ptr %38, align 8
  %40 = getelementptr i8, ptr %39, i64 4
  %.val4768 = load i32, ptr %40, align 4
  %41 = icmp sgt i32 %.val4768, 0
  br i1 %41, label %.lr.ph70.preheader, label %.critedge4

.lr.ph70.preheader:                               ; preds = %.critedge
  %.val5387 = load ptr, ptr %20, align 8
  %.not4588 = icmp eq ptr %.val5387, null
  br i1 %.not4588, label %.critedge2, label %.lr.ph91

.lr.ph70:                                         ; preds = %52
  %.val53 = load ptr, ptr %20, align 8
  %.not45 = icmp eq ptr %.val53, null
  br i1 %.not45, label %.critedge2.loopexit, label %.lr.ph91, !llvm.loop !145

.lr.ph91:                                         ; preds = %.lr.ph70.preheader, %.lr.ph70
  %.val5390 = phi ptr [ %.val53, %.lr.ph70 ], [ %.val5387, %.lr.ph70.preheader ]
  %indvars.iv7789 = phi i64 [ %indvars.iv.next78, %.lr.ph70 ], [ 0, %.lr.ph70.preheader ]
  %42 = phi ptr [ %53, %.lr.ph70 ], [ %39, %.lr.ph70.preheader ]
  %43 = getelementptr i8, ptr %42, i64 8
  %.val54.val = load ptr, ptr %43, align 8
  %44 = getelementptr inbounds nuw i32, ptr %.val54.val, i64 %indvars.iv7789
  %45 = load i32, ptr %44, align 4
  %46 = sext i32 %45 to i64
  %47 = getelementptr inbounds %struct.Gia_Obj_t_, ptr %.val5390, i64 %46, i32 1
  %48 = load i32, ptr %47, align 4
  %49 = icmp eq i32 %48, -1
  br i1 %49, label %50, label %52

50:                                               ; preds = %.lr.ph91
  %51 = tail call fastcc i32 @Gia_ManAppendCi(ptr noundef nonnull %3)
  store i32 %51, ptr %47, align 4
  %.pre = load ptr, ptr %38, align 8
  br label %52

52:                                               ; preds = %.lr.ph91, %50
  %53 = phi ptr [ %42, %.lr.ph91 ], [ %.pre, %50 ]
  %indvars.iv.next78 = add nuw nsw i64 %indvars.iv7789, 1
  %54 = getelementptr i8, ptr %53, i64 4
  %.val47 = load i32, ptr %54, align 4
  %55 = sext i32 %.val47 to i64
  %56 = icmp slt i64 %indvars.iv.next78, %55
  br i1 %56, label %.lr.ph70, label %.critedge2.loopexit, !llvm.loop !145

.critedge2.loopexit:                              ; preds = %.lr.ph70, %52
  %57 = icmp sgt i32 %.val47, 0
  br label %.critedge2

.critedge2:                                       ; preds = %.critedge2.loopexit, %.lr.ph70.preheader
  %.val72.pre = phi i1 [ true, %.lr.ph70.preheader ], [ %57, %.critedge2.loopexit ]
  %58 = phi ptr [ %39, %.lr.ph70.preheader ], [ %53, %.critedge2.loopexit ]
  br i1 %.val72.pre, label %.lr.ph74, label %.critedge4

.lr.ph74:                                         ; preds = %.critedge2
  %59 = getelementptr i8, ptr %3, i64 32
  %60 = getelementptr inbounds nuw i8, ptr %3, i64 64
  br label %61

61:                                               ; preds = %.lr.ph74, %63
  %indvars.iv80 = phi i64 [ 0, %.lr.ph74 ], [ %indvars.iv.next81, %63 ]
  %62 = phi ptr [ %58, %.lr.ph74 ], [ %92, %63 ]
  %.val51 = load ptr, ptr %20, align 8
  %.not46 = icmp eq ptr %.val51, null
  br i1 %.not46, label %.critedge4, label %63

63:                                               ; preds = %61
  %64 = getelementptr i8, ptr %62, i64 8
  %.val52.val = load ptr, ptr %64, align 8
  %65 = getelementptr inbounds nuw i32, ptr %.val52.val, i64 %indvars.iv80
  %66 = load i32, ptr %65, align 4
  %67 = sext i32 %66 to i64
  %68 = getelementptr inbounds %struct.Gia_Obj_t_, ptr %.val51, i64 %67
  %69 = getelementptr inbounds nuw i8, ptr %68, i64 8
  %70 = load i32, ptr %69, align 4
  %.val55 = load ptr, ptr %59, align 8
  %71 = ashr i32 %70, 1
  %72 = sext i32 %71 to i64
  %73 = getelementptr inbounds %struct.Gia_Obj_t_, ptr %.val55, i64 %72
  %74 = and i32 %70, 1
  %75 = ptrtoint ptr %73 to i64
  %76 = zext nneg i32 %74 to i64
  %77 = xor i64 %75, %76
  %78 = inttoptr i64 %77 to ptr
  %79 = load ptr, ptr %60, align 8
  %.val62 = load i64, ptr %68, align 4
  %80 = lshr i64 %.val62, 32
  %81 = and i64 %80, 536870911
  %82 = ptrtoint ptr %.val55 to i64
  %83 = sub i64 %77, %82
  %84 = sdiv exact i64 %83, 12
  %85 = trunc i64 %84 to i32
  %86 = getelementptr i8, ptr %79, i64 8
  %.val49 = load ptr, ptr %86, align 8
  %87 = getelementptr inbounds nuw i32, ptr %.val49, i64 %81
  store i32 %85, ptr %87, align 4
  %.val61 = load i64, ptr %68, align 4
  %88 = and i64 %.val61, 2305843004918726656
  %89 = load i64, ptr %78, align 4
  %90 = and i64 %89, -2305843004918726657
  %91 = or disjoint i64 %90, %88
  store i64 %91, ptr %78, align 4
  %indvars.iv.next81 = add nuw nsw i64 %indvars.iv80, 1
  %92 = load ptr, ptr %38, align 8
  %93 = getelementptr i8, ptr %92, i64 4
  %.val = load i32, ptr %93, align 4
  %94 = sext i32 %.val to i64
  %95 = icmp slt i64 %indvars.iv.next81, %94
  br i1 %95, label %61, label %.critedge4, !llvm.loop !146

.critedge4:                                       ; preds = %61, %63, %.critedge, %.critedge2
  %96 = getelementptr i8, ptr %0, i64 16
  %.val60 = load i32, ptr %96, align 8
  tail call void @Gia_ManSetRegNum(ptr noundef nonnull %3, i32 noundef %.val60) #29
  ret ptr %3
}